; Function Attrs: nounwind uwtable
define noundef nonnull ptr @l_Std_DHashMap_Internal_AssocList_contains___at_Lean_Server_FileWorker_filterDuplicateSemanticTokens___spec__2___boxed(ptr noundef %0, ptr noundef %1) local_unnamed_addr #0 {
  %3 = getelementptr inbounds nuw i8, ptr %0, i64 8
  %4 = getelementptr inbounds nuw i8, ptr %0, i64 16
  %5 = getelementptr inbounds nuw i8, ptr %0, i64 24
  br label %.backedge.i

.backedge.i:                                      ; preds = %.backedge.i.backedge, %2
  %.011.i = phi ptr [ %1, %2 ], [ %19, %.backedge.i.backedge ]
  %6 = ptrtoint ptr %.011.i to i64
  %7 = and i64 %6, 1
  %.not.i.i = icmp eq i64 %7, 0
  br i1 %.not.i.i, label %11, label %8

8:                                                ; preds = %.backedge.i
  %9 = lshr i64 %6, 1
  %10 = trunc i64 %9 to i32
  br label %lean_obj_tag.exit.i

11:                                               ; preds = %.backedge.i
  %12 = getelementptr i8, ptr %.011.i, i64 4
  %.val.i.i = load i32, ptr %12, align 4
  %13 = lshr i32 %.val.i.i, 24
  br label %lean_obj_tag.exit.i

lean_obj_tag.exit.i:                              ; preds = %11, %8
  %.0.i.i = phi i32 [ %10, %8 ], [ %13, %11 ]
  %14 = icmp eq i32 %.0.i.i, 0
  br i1 %14, label %l_Std_DHashMap_Internal_AssocList_contains___at_Lean_Server_FileWorker_filterDuplicateSemanticTokens___spec__2.exit, label %15

15:                                               ; preds = %lean_obj_tag.exit.i
  %16 = getelementptr inbounds nuw i8, ptr %.011.i, i64 8
  %17 = load ptr, ptr %16, align 8, !tbaa !11
  %18 = getelementptr inbounds nuw i8, ptr %.011.i, i64 24
  %19 = load ptr, ptr %18, align 8, !tbaa !11
  %20 = getelementptr inbounds nuw i8, ptr %17, i64 8
  %21 = load ptr, ptr %20, align 8, !tbaa !11
  %22 = getelementptr inbounds nuw i8, ptr %17, i64 16
  %23 = load ptr, ptr %22, align 8, !tbaa !11
  %24 = getelementptr inbounds nuw i8, ptr %17, i64 24
  %25 = load i8, ptr %24, align 1, !tbaa !13
  %26 = load ptr, ptr %3, align 8, !tbaa !11
  %27 = load ptr, ptr %4, align 8, !tbaa !11
  %28 = load i8, ptr %5, align 1, !tbaa !13
  %29 = tail call zeroext i8 @l_Lean_Lsp_beqPosition____x40_Lean_Data_Lsp_Basic___hyg_41_(ptr noundef %21, ptr noundef %26) #7
  %30 = icmp eq i8 %29, 0
  br i1 %30, label %.backedge.i.backedge, label %31

31:                                               ; preds = %15
  %32 = tail call zeroext i8 @l_Lean_Lsp_beqPosition____x40_Lean_Data_Lsp_Basic___hyg_41_(ptr noundef %23, ptr noundef %27) #7
  %33 = icmp eq i8 %32, 0
  br i1 %33, label %.backedge.i.backedge, label %l_Lean_Server_FileWorker_beqAbsoluteLspSemanticToken____x40_Lean_Server_FileWorker_SemanticHighlighting___hyg_96_.exit.i

l_Lean_Server_FileWorker_beqAbsoluteLspSemanticToken____x40_Lean_Server_FileWorker_SemanticHighlighting___hyg_96_.exit.i: ; preds = %31
  %34 = tail call zeroext i8 @l_Lean_Lsp_beqSemanticTokenType____x40_Lean_Data_Lsp_LanguageFeatures___hyg_8921_(i8 noundef zeroext %25, i8 noundef zeroext %28) #7
  %35 = icmp eq i8 %34, 0
  br i1 %35, label %.backedge.i.backedge, label %l_Std_DHashMap_Internal_AssocList_contains___at_Lean_Server_FileWorker_filterDuplicateSemanticTokens___spec__2.exit

.backedge.i.backedge:                             ; preds = %l_Lean_Server_FileWorker_beqAbsoluteLspSemanticToken____x40_Lean_Server_FileWorker_SemanticHighlighting___hyg_96_.exit.i, %31, %15
  br label %.backedge.i

l_Std_DHashMap_Internal_AssocList_contains___at_Lean_Server_FileWorker_filterDuplicateSemanticTokens___spec__2.exit: ; preds = %lean_obj_tag.exit.i, %l_Lean_Server_FileWorker_beqAbsoluteLspSemanticToken____x40_Lean_Server_FileWorker_SemanticHighlighting___hyg_96_.exit.i
  %.1.i = phi i64 [ 3, %l_Lean_Server_FileWorker_beqAbsoluteLspSemanticToken____x40_Lean_Server_FileWorker_SemanticHighlighting___hyg_96_.exit.i ], [ 1, %lean_obj_tag.exit.i ]
  %36 = ptrtoint ptr %1 to i64
  %37 = and i64 %36, 1
  %.not = icmp eq i64 %37, 0
  br i1 %.not, label %38, label %lean_dec.exit5

38:                                               ; preds = %l_Std_DHashMap_Internal_AssocList_contains___at_Lean_Server_FileWorker_filterDuplicateSemanticTokens___spec__2.exit
  %39 = load i32, ptr %1, align 4, !tbaa !8
  %40 = icmp sgt i32 %39, 1
  br i1 %40, label %41, label %43, !prof !14

41:                                               ; preds = %38
  %42 = add nsw i32 %39, -1
  store i32 %42, ptr %1, align 4, !tbaa !8
  br label %lean_dec.exit5

43:                                               ; preds = %38
  %.not.i = icmp eq i32 %39, 0
  br i1 %.not.i, label %lean_dec.exit5, label %44

44:                                               ; preds = %43
  tail call void @lean_dec_ref_cold(ptr noundef nonnull %1) #7
  br label %lean_dec.exit5

lean_dec.exit5:                                   ; preds = %44, %43, %41, %l_Std_DHashMap_Internal_AssocList_contains___at_Lean_Server_FileWorker_filterDuplicateSemanticTokens___spec__2.exit
  %45 = ptrtoint ptr %0 to i64
  %46 = and i64 %45, 1
  %.not8 = icmp eq i64 %46, 0
  br i1 %.not8, label %47, label %lean_dec.exit

47:                                               ; preds = %lean_dec.exit5
  %48 = load i32, ptr %0, align 4, !tbaa !8
  %49 = icmp sgt i32 %48, 1
  br i1 %49, label %50, label %52, !prof !14

50:                                               ; preds = %47
  %51 = add nsw i32 %48, -1
  store i32 %51, ptr %0, align 4, !tbaa !8
  br label %lean_dec.exit

52:                                               ; preds = %47
  %.not.i6 = icmp eq i32 %48, 0
  br i1 %.not.i6, label %lean_dec.exit, label %53

53:                                               ; preds = %52
  tail call void @lean_dec_ref_cold(ptr noundef nonnull %0) #7
  br label %lean_dec.exit

lean_dec.exit:                                    ; preds = %53, %52, %50, %lean_dec.exit5
  %54 = inttoptr i64 %.1.i to ptr
  ret ptr %54
}